target datalayout = "e-m:e-p270:32:32-p271:32:32-p272:64:64-i64:64-i128:128-f80:128-n8:16:32:64-S128"
target triple = "x86_64-pc-linux-gnu"

%struct.ParseState = type { ptr, ptr, i32, i32, ptr, ptr, ptr, ptr, ptr, ptr, i8, ptr, ptr, ptr, ptr, ptr, ptr, i8, ptr, i32, i32, ptr, ptr, i8, i8, ptr, i8, i8, i8, i8, i8, ptr, ptr, ptr, ptr, ptr, ptr }
%struct.List = type { i32, i32, i32, ptr, [0 x %union.ListCell] }
%union.ListCell = type { ptr }
%struct.ParseNamespaceItem = type { ptr, ptr, i32, ptr, ptr, i8, i8, i8, i8, i32 }
%struct.RangeTblEntry = type { i32, ptr, ptr, i32, i32, i8, i8, i32, i32, ptr, ptr, i8, i32, i32, ptr, ptr, ptr, ptr, ptr, i8, ptr, ptr, ptr, i32, i8, ptr, ptr, ptr, ptr, double, ptr, i8, i8, ptr }
%struct.Alias = type { i32, ptr, ptr }
%struct.Node = type { i32 }

@.str.1 = private unnamed_addr constant [17 x i8] c"parse_relation.c\00", align 1
@.str.33 = private unnamed_addr constant [34 x i8] c"joins can have at most %d columns\00", align 1
@__func__.addRangeTableEntryForJoin = private unnamed_addr constant [26 x i8] c"addRangeTableEntryForJoin\00", align 1
@.str.34 = private unnamed_addr constant [13 x i8] c"unnamed_join\00", align 1
@.str.35 = private unnamed_addr constant [71 x i8] c"join expression \22%s\22 has %d columns available but %d columns specified\00", align 1

; Function Attrs: inlinehint nounwind uwtable
define internal i32 @list_length(ptr noundef %0) #6 {
  %2 = alloca ptr, align 8
  store ptr %0, ptr %2, align 8
  %3 = load ptr, ptr %2, align 8
  %4 = icmp ne ptr %3, null
  br i1 %4, label %5, label %9

5:                                                ; preds = %1
  %6 = load ptr, ptr %2, align 8
  %7 = getelementptr inbounds nuw %struct.List, ptr %6, i32 0, i32 1
  %8 = load i32, ptr %7, align 4
  br label %10

9:                                                ; preds = %1
  br label %10

10:                                               ; preds = %9, %5
  %11 = phi i32 [ %8, %5 ], [ 0, %9 ]
  ret i32 %11
}

; Function Attrs: inlinehint nounwind uwtable
define internal ptr @newNode(i64 noundef %0, i32 noundef %1) #6 {
  %3 = alloca i64, align 8
  %4 = alloca i32, align 4
  %5 = alloca ptr, align 8
  store i64 %0, ptr %3, align 8
  store i32 %1, ptr %4, align 4
  call void @llvm.lifetime.start.p0(i64 8, ptr %5) #8
  %6 = load i64, ptr %3, align 8
  %7 = call ptr @palloc0(i64 noundef %6)
  store ptr %7, ptr %5, align 8
  %8 = load i32, ptr %4, align 4
  %9 = load ptr, ptr %5, align 8
  %10 = getelementptr inbounds nuw %struct.Node, ptr %9, i32 0, i32 0
  store i32 %8, ptr %10, align 4
  %11 = load ptr, ptr %5, align 8
  call void @llvm.lifetime.end.p0(i64 8, ptr %5) #8
  ret ptr %11
}

; Function Attrs: nounwind uwtable
define dso_local ptr @addRangeTableEntryForJoin(ptr noundef %0, ptr noundef %1, ptr noundef %2, i32 noundef %3, i32 noundef %4, ptr noundef %5, ptr noundef %6, ptr noundef %7, ptr noundef %8, ptr noundef %9, i1 noundef zeroext %10) #0 {
  %12 = alloca ptr, align 8
  %13 = alloca ptr, align 8
  %14 = alloca ptr, align 8
  %15 = alloca i32, align 4
  %16 = alloca i32, align 4
  %17 = alloca ptr, align 8
  %18 = alloca ptr, align 8
  %19 = alloca ptr, align 8
  %20 = alloca ptr, align 8
  %21 = alloca ptr, align 8
  %22 = alloca i8, align 1
  %23 = alloca ptr, align 8
  %24 = alloca ptr, align 8
  %25 = alloca i32, align 4
  %26 = alloca ptr, align 8
  store ptr %0, ptr %12, align 8
  store ptr %1, ptr %13, align 8
  store ptr %2, ptr %14, align 8
  store i32 %3, ptr %15, align 4
  store i32 %4, ptr %16, align 4
  store ptr %5, ptr %17, align 8
  store ptr %6, ptr %18, align 8
  store ptr %7, ptr %19, align 8
  store ptr %8, ptr %20, align 8
  store ptr %9, ptr %21, align 8
  %27 = zext i1 %10 to i8
  store i8 %27, ptr %22, align 1
  call void @llvm.lifetime.start.p0(i64 8, ptr %23) #8
  %28 = call ptr @newNode(i64 noundef 224, i32 noundef 101)
  store ptr %28, ptr %23, align 8
  call void @llvm.lifetime.start.p0(i64 8, ptr %24) #8
  call void @llvm.lifetime.start.p0(i64 4, ptr %25) #8
  call void @llvm.lifetime.start.p0(i64 8, ptr %26) #8
  %29 = load ptr, ptr %17, align 8
  %30 = call i32 @list_length(ptr noundef %29)
  %31 = icmp sgt i32 %30, 32767
  br i1 %31, label %32, label %44

32:                                               ; preds = %11
  br label %33

33:                                               ; preds = %32
  br i1 true, label %34, label %36

34:                                               ; preds = %33
  %35 = call zeroext i1 @errstart_cold(i32 noundef 21, ptr noundef null) #9
  br i1 %35, label %38, label %41

36:                                               ; preds = %33
  %37 = call zeroext i1 @errstart(i32 noundef 21, ptr noundef null)
  br i1 %37, label %38, label %41

38:                                               ; preds = %36, %34
  %39 = call i32 @errcode(i32 noundef 261)
  %40 = call i32 (ptr, ...) @errmsg(ptr noundef @.str.33, i32 noundef 32767)
  call void @errfinish(ptr noundef @.str.1, i32 noundef 2260, ptr noundef @__func__.addRangeTableEntryForJoin)
  br label %41

41:                                               ; preds = %38, %36, %34
  unreachable

42:                                               ; No predecessors!
  br label %43

43:                                               ; preds = %42
  br label %44

44:                                               ; preds = %43, %11
  %45 = load ptr, ptr %23, align 8
  %46 = getelementptr inbounds nuw %struct.RangeTblEntry, ptr %45, i32 0, i32 3
  store i32 2, ptr %46, align 8
  %47 = load ptr, ptr %23, align 8
  %48 = getelementptr inbounds nuw %struct.RangeTblEntry, ptr %47, i32 0, i32 4
  store i32 0, ptr %48, align 4
  %49 = load ptr, ptr %23, align 8
  %50 = getelementptr inbounds nuw %struct.RangeTblEntry, ptr %49, i32 0, i32 10
  store ptr null, ptr %50, align 8
  %51 = load i32, ptr %15, align 4
  %52 = load ptr, ptr %23, align 8
  %53 = getelementptr inbounds nuw %struct.RangeTblEntry, ptr %52, i32 0, i32 12
  store i32 %51, ptr %53, align 4
  %54 = load i32, ptr %16, align 4
  %55 = load ptr, ptr %23, align 8
  %56 = getelementptr inbounds nuw %struct.RangeTblEntry, ptr %55, i32 0, i32 13
  store i32 %54, ptr %56, align 8
  %57 = load ptr, ptr %17, align 8
  %58 = load ptr, ptr %23, align 8
  %59 = getelementptr inbounds nuw %struct.RangeTblEntry, ptr %58, i32 0, i32 14
  store ptr %57, ptr %59, align 8
  %60 = load ptr, ptr %18, align 8
  %61 = load ptr, ptr %23, align 8
  %62 = getelementptr inbounds nuw %struct.RangeTblEntry, ptr %61, i32 0, i32 15
  store ptr %60, ptr %62, align 8
  %63 = load ptr, ptr %19, align 8
  %64 = load ptr, ptr %23, align 8
  %65 = getelementptr inbounds nuw %struct.RangeTblEntry, ptr %64, i32 0, i32 16
  store ptr %63, ptr %65, align 8
  %66 = load ptr, ptr %20, align 8
  %67 = load ptr, ptr %23, align 8
  %68 = getelementptr inbounds nuw %struct.RangeTblEntry, ptr %67, i32 0, i32 17
  store ptr %66, ptr %68, align 8
  %69 = load ptr, ptr %21, align 8
  %70 = load ptr, ptr %23, align 8
  %71 = getelementptr inbounds nuw %struct.RangeTblEntry, ptr %70, i32 0, i32 1
  store ptr %69, ptr %71, align 8
  %72 = load ptr, ptr %21, align 8
  %73 = icmp ne ptr %72, null
  br i1 %73, label %74, label %77

74:                                               ; preds = %44
  %75 = load ptr, ptr %21, align 8
  %76 = call ptr @copyObjectImpl(ptr noundef %75)
  br label %79

77:                                               ; preds = %44
  %78 = call ptr @makeAlias(ptr noundef @.str.34, ptr noundef null)
  br label %79

79:                                               ; preds = %77, %74
  %80 = phi ptr [ %76, %74 ], [ %78, %77 ]
  store ptr %80, ptr %24, align 8
  %81 = load ptr, ptr %24, align 8
  %82 = getelementptr inbounds nuw %struct.Alias, ptr %81, i32 0, i32 2
  %83 = load ptr, ptr %82, align 8
  %84 = call i32 @list_length(ptr noundef %83)
  store i32 %84, ptr %25, align 4
  %85 = load i32, ptr %25, align 4
  %86 = load ptr, ptr %13, align 8
  %87 = call i32 @list_length(ptr noundef %86)
  %88 = icmp slt i32 %85, %87
  br i1 %88, label %89, label %99

89:                                               ; preds = %79
  %90 = load ptr, ptr %24, align 8
  %91 = getelementptr inbounds nuw %struct.Alias, ptr %90, i32 0, i32 2
  %92 = load ptr, ptr %91, align 8
  %93 = load ptr, ptr %13, align 8
  %94 = load i32, ptr %25, align 4
  %95 = call ptr @list_copy_tail(ptr noundef %93, i32 noundef %94)
  %96 = call ptr @list_concat(ptr noundef %92, ptr noundef %95)
  %97 = load ptr, ptr %24, align 8
  %98 = getelementptr inbounds nuw %struct.Alias, ptr %97, i32 0, i32 2
  store ptr %96, ptr %98, align 8
  br label %99

99:                                               ; preds = %89, %79
  %100 = load i32, ptr %25, align 4
  %101 = load ptr, ptr %13, align 8
  %102 = call i32 @list_length(ptr noundef %101)
  %103 = icmp sgt i32 %100, %102
  br i1 %103, label %104, label %122

104:                                              ; preds = %99
  br label %105

105:                                              ; preds = %104
  br i1 true, label %106, label %108

106:                                              ; preds = %105
  %107 = call zeroext i1 @errstart_cold(i32 noundef 21, ptr noundef null) #9
  br i1 %107, label %110, label %119

108:                                              ; preds = %105
  %109 = call zeroext i1 @errstart(i32 noundef 21, ptr noundef null)
  br i1 %109, label %110, label %119

110:                                              ; preds = %108, %106
  %111 = call i32 @errcode(i32 noundef 393348)
  %112 = load ptr, ptr %24, align 8
  %113 = getelementptr inbounds nuw %struct.Alias, ptr %112, i32 0, i32 1
  %114 = load ptr, ptr %113, align 8
  %115 = load ptr, ptr %13, align 8
  %116 = call i32 @list_length(ptr noundef %115)
  %117 = load i32, ptr %25, align 4
  %118 = call i32 (ptr, ...) @errmsg(ptr noundef @.str.35, ptr noundef %114, i32 noundef %116, i32 noundef %117)
  call void @errfinish(ptr noundef @.str.1, i32 noundef 2285, ptr noundef @__func__.addRangeTableEntryForJoin)
  br label %119

119:                                              ; preds = %110, %108, %106
  unreachable

120:                                              ; No predecessors!
  br label %121

121:                                              ; preds = %120
  br label %122

122:                                              ; preds = %121, %99
  %123 = load ptr, ptr %24, align 8
  %124 = load ptr, ptr %23, align 8
  %125 = getelementptr inbounds nuw %struct.RangeTblEntry, ptr %124, i32 0, i32 2
  store ptr %123, ptr %125, align 8
  %126 = load ptr, ptr %23, align 8
  %127 = getelementptr inbounds nuw %struct.RangeTblEntry, ptr %126, i32 0, i32 31
  store i8 0, ptr %127, align 8
  %128 = load i8, ptr %22, align 1, !range !6, !noundef !7
  %129 = trunc i8 %128 to i1
  %130 = load ptr, ptr %23, align 8
  %131 = getelementptr inbounds nuw %struct.RangeTblEntry, ptr %130, i32 0, i32 32
  %132 = zext i1 %129 to i8
  store i8 %132, ptr %131, align 1
  %133 = load ptr, ptr %12, align 8
  %134 = getelementptr inbounds nuw %struct.ParseState, ptr %133, i32 0, i32 4
  %135 = load ptr, ptr %134, align 8
  %136 = load ptr, ptr %23, align 8
  %137 = call ptr @lappend(ptr noundef %135, ptr noundef %136)
  %138 = load ptr, ptr %12, align 8
  %139 = getelementptr inbounds nuw %struct.ParseState, ptr %138, i32 0, i32 4
  store ptr %137, ptr %139, align 8
  %140 = call ptr @palloc(i64 noundef 48)
  store ptr %140, ptr %26, align 8
  %141 = load ptr, ptr %23, align 8
  %142 = getelementptr inbounds nuw %struct.RangeTblEntry, ptr %141, i32 0, i32 2
  %143 = load ptr, ptr %142, align 8
  %144 = load ptr, ptr %26, align 8
  %145 = getelementptr inbounds nuw %struct.ParseNamespaceItem, ptr %144, i32 0, i32 0
  store ptr %143, ptr %145, align 8
  %146 = load ptr, ptr %23, align 8
  %147 = load ptr, ptr %26, align 8
  %148 = getelementptr inbounds nuw %struct.ParseNamespaceItem, ptr %147, i32 0, i32 1
  store ptr %146, ptr %148, align 8
  %149 = load ptr, ptr %26, align 8
  %150 = getelementptr inbounds nuw %struct.ParseNamespaceItem, ptr %149, i32 0, i32 3
  store ptr null, ptr %150, align 8
  %151 = load ptr, ptr %12, align 8
  %152 = getelementptr inbounds nuw %struct.ParseState, ptr %151, i32 0, i32 4
  %153 = load ptr, ptr %152, align 8
  %154 = call i32 @list_length(ptr noundef %153)
  %155 = load ptr, ptr %26, align 8
  %156 = getelementptr inbounds nuw %struct.ParseNamespaceItem, ptr %155, i32 0, i32 2
  store i32 %154, ptr %156, align 8
  %157 = load ptr, ptr %14, align 8
  %158 = load ptr, ptr %26, align 8
  %159 = getelementptr inbounds nuw %struct.ParseNamespaceItem, ptr %158, i32 0, i32 4
  store ptr %157, ptr %159, align 8
  %160 = load ptr, ptr %26, align 8
  %161 = getelementptr inbounds nuw %struct.ParseNamespaceItem, ptr %160, i32 0, i32 5
  store i8 1, ptr %161, align 8
  %162 = load ptr, ptr %26, align 8
  %163 = getelementptr inbounds nuw %struct.ParseNamespaceItem, ptr %162, i32 0, i32 6
  store i8 1, ptr %163, align 1
  %164 = load ptr, ptr %26, align 8
  %165 = getelementptr inbounds nuw %struct.ParseNamespaceItem, ptr %164, i32 0, i32 7
  store i8 0, ptr %165, align 2
  %166 = load ptr, ptr %26, align 8
  %167 = getelementptr inbounds nuw %struct.ParseNamespaceItem, ptr %166, i32 0, i32 8
  store i8 1, ptr %167, align 1
  %168 = load ptr, ptr %26, align 8
  %169 = getelementptr inbounds nuw %struct.ParseNamespaceItem, ptr %168, i32 0, i32 9
  store i32 0, ptr %169, align 4
  %170 = load ptr, ptr %26, align 8
  call void @llvm.lifetime.end.p0(i64 8, ptr %26) #8
  call void @llvm.lifetime.end.p0(i64 4, ptr %25) #8
  call void @llvm.lifetime.end.p0(i64 8, ptr %24) #8
  call void @llvm.lifetime.end.p0(i64 8, ptr %23) #8
  ret ptr %170
}