; Function Attrs: nounwind uwtable
define dso_local noundef ptr @addRangeTableEntryForJoin(ptr noundef captures(none) %0, ptr noundef %1, ptr noundef %2, i32 noundef %3, i32 noundef %4, ptr noundef %5, ptr noundef %6, ptr noundef %7, ptr noundef %8, ptr noundef %9, i1 noundef zeroext %10) local_unnamed_addr #0 {
  %12 = tail call noundef ptr @palloc0(i64 noundef 224) #11
  store i32 101, ptr %12, align 4
  %.not.i = icmp eq ptr %5, null
  br i1 %.not.i, label %list_length.exit.thread, label %list_length.exit

list_length.exit:                                 ; preds = %11
  %13 = getelementptr inbounds nuw i8, ptr %5, i64 4
  %14 = load i32, ptr %13, align 4
  %15 = icmp sgt i32 %14, 32767
  br i1 %15, label %16, label %list_length.exit.thread

16:                                               ; preds = %list_length.exit
  %17 = tail call zeroext i1 @errstart_cold(i32 noundef 21, ptr noundef null) #13
  tail call void @llvm.assume(i1 %17)
  %18 = tail call i32 @errcode(i32 noundef 261) #11
  %19 = tail call i32 (ptr, ...) @errmsg(ptr noundef nonnull @.str.33, i32 noundef 32767) #11
  tail call void @errfinish(ptr noundef nonnull @.str.1, i32 noundef 2260, ptr noundef nonnull @__func__.addRangeTableEntryForJoin) #11
  unreachable

list_length.exit.thread:                          ; preds = %11, %list_length.exit
  %20 = getelementptr inbounds nuw i8, ptr %12, i64 24
  store i32 2, ptr %20, align 8
  %21 = getelementptr inbounds nuw i8, ptr %12, i64 28
  store i32 0, ptr %21, align 4
  %22 = getelementptr inbounds nuw i8, ptr %12, i64 56
  store ptr null, ptr %22, align 8
  %23 = getelementptr inbounds nuw i8, ptr %12, i64 68
  store i32 %3, ptr %23, align 4
  %24 = getelementptr inbounds nuw i8, ptr %12, i64 72
  store i32 %4, ptr %24, align 8
  %25 = getelementptr inbounds nuw i8, ptr %12, i64 80
  store ptr %5, ptr %25, align 8
  %26 = getelementptr inbounds nuw i8, ptr %12, i64 88
  store ptr %6, ptr %26, align 8
  %27 = getelementptr inbounds nuw i8, ptr %12, i64 96
  store ptr %7, ptr %27, align 8
  %28 = getelementptr inbounds nuw i8, ptr %12, i64 104
  store ptr %8, ptr %28, align 8
  %29 = getelementptr inbounds nuw i8, ptr %12, i64 8
  store ptr %9, ptr %29, align 8
  %.not = icmp eq ptr %9, null
  br i1 %.not, label %32, label %30

30:                                               ; preds = %list_length.exit.thread
  %31 = tail call ptr @copyObjectImpl(ptr noundef nonnull %9) #11
  br label %34

32:                                               ; preds = %list_length.exit.thread
  %33 = tail call ptr @makeAlias(ptr noundef nonnull @.str.34, ptr noundef null) #11
  br label %34

34:                                               ; preds = %32, %30
  %35 = phi ptr [ %31, %30 ], [ %33, %32 ]
  %36 = getelementptr inbounds nuw i8, ptr %35, i64 16
  %37 = load ptr, ptr %36, align 8
  %.not.i55 = icmp eq ptr %37, null
  br i1 %.not.i55, label %list_length.exit56, label %38

38:                                               ; preds = %34
  %39 = getelementptr inbounds nuw i8, ptr %37, i64 4
  %40 = load i32, ptr %39, align 4
  br label %list_length.exit56

list_length.exit56:                               ; preds = %34, %38
  %41 = phi i32 [ %40, %38 ], [ 0, %34 ]
  %.not.i57 = icmp eq ptr %1, null
  br i1 %.not.i57, label %list_length.exit58, label %42

42:                                               ; preds = %list_length.exit56
  %43 = getelementptr inbounds nuw i8, ptr %1, i64 4
  %44 = load i32, ptr %43, align 4
  br label %list_length.exit58

list_length.exit58:                               ; preds = %list_length.exit56, %42
  %45 = phi i32 [ %44, %42 ], [ 0, %list_length.exit56 ]
  %46 = icmp slt i32 %41, %45
  br i1 %46, label %47, label %50

47:                                               ; preds = %list_length.exit58
  %48 = tail call ptr @list_copy_tail(ptr noundef %1, i32 noundef %41) #11
  %49 = tail call ptr @list_concat(ptr noundef %37, ptr noundef %48) #11
  store ptr %49, ptr %36, align 8
  br label %50

50:                                               ; preds = %47, %list_length.exit58
  br i1 %.not.i57, label %list_length.exit60, label %51

51:                                               ; preds = %50
  %52 = getelementptr inbounds nuw i8, ptr %1, i64 4
  %53 = load i32, ptr %52, align 4
  br label %list_length.exit60

list_length.exit60:                               ; preds = %50, %51
  %54 = phi i32 [ %53, %51 ], [ 0, %50 ]
  %55 = icmp sgt i32 %41, %54
  br i1 %55, label %56, label %66

56:                                               ; preds = %list_length.exit60
  %57 = tail call zeroext i1 @errstart_cold(i32 noundef 21, ptr noundef null) #13
  tail call void @llvm.assume(i1 %57)
  %58 = tail call i32 @errcode(i32 noundef 393348) #11
  %59 = getelementptr inbounds nuw i8, ptr %35, i64 8
  %60 = load ptr, ptr %59, align 8
  br i1 %.not.i57, label %list_length.exit62, label %61

61:                                               ; preds = %56
  %62 = getelementptr inbounds nuw i8, ptr %1, i64 4
  %63 = load i32, ptr %62, align 4
  br label %list_length.exit62

list_length.exit62:                               ; preds = %56, %61
  %64 = phi i32 [ %63, %61 ], [ 0, %56 ]
  %65 = tail call i32 (ptr, ...) @errmsg(ptr noundef nonnull @.str.35, ptr noundef %60, i32 noundef %64, i32 noundef %41) #11
  tail call void @errfinish(ptr noundef nonnull @.str.1, i32 noundef 2285, ptr noundef nonnull @__func__.addRangeTableEntryForJoin) #11
  unreachable

66:                                               ; preds = %list_length.exit60
  %67 = zext i1 %10 to i8
  %68 = getelementptr inbounds nuw i8, ptr %12, i64 16
  store ptr %35, ptr %68, align 8
  %69 = getelementptr inbounds nuw i8, ptr %12, i64 208
  store i8 0, ptr %69, align 8
  %70 = getelementptr inbounds nuw i8, ptr %12, i64 209
  store i8 %67, ptr %70, align 1
  %71 = getelementptr inbounds nuw i8, ptr %0, i64 24
  %72 = load ptr, ptr %71, align 8
  %73 = tail call ptr @lappend(ptr noundef %72, ptr noundef nonnull %12) #11
  store ptr %73, ptr %71, align 8
  %74 = tail call ptr @palloc(i64 noundef 48) #11
  %75 = load ptr, ptr %68, align 8
  store ptr %75, ptr %74, align 8
  %76 = getelementptr inbounds nuw i8, ptr %74, i64 8
  store ptr %12, ptr %76, align 8
  %77 = getelementptr inbounds nuw i8, ptr %74, i64 24
  store ptr null, ptr %77, align 8
  %78 = load ptr, ptr %71, align 8
  %.not.i63 = icmp eq ptr %78, null
  br i1 %.not.i63, label %list_length.exit64, label %79

79:                                               ; preds = %66
  %80 = getelementptr inbounds nuw i8, ptr %78, i64 4
  %81 = load i32, ptr %80, align 4
  br label %list_length.exit64

list_length.exit64:                               ; preds = %66, %79
  %82 = phi i32 [ %81, %79 ], [ 0, %66 ]
  %83 = getelementptr inbounds nuw i8, ptr %74, i64 16
  store i32 %82, ptr %83, align 8
  %84 = getelementptr inbounds nuw i8, ptr %74, i64 32
  store ptr %2, ptr %84, align 8
  %85 = getelementptr inbounds nuw i8, ptr %74, i64 40
  store i8 1, ptr %85, align 8
  %86 = getelementptr inbounds nuw i8, ptr %74, i64 41
  store i8 1, ptr %86, align 1
  %87 = getelementptr inbounds nuw i8, ptr %74, i64 42
  store i8 0, ptr %87, align 2
  %88 = getelementptr inbounds nuw i8, ptr %74, i64 43
  store i8 1, ptr %88, align 1
  %89 = getelementptr inbounds nuw i8, ptr %74, i64 44
  store i32 0, ptr %89, align 4
  ret ptr %74
}